target datalayout = "e-m:e-p270:32:32-p271:32:32-p272:64:64-i64:64-i128:128-f80:128-n8:16:32:64-S128"
target triple = "x86_64-pc-linux-gnu"

%"class.cv::ap3p" = type { double, double, double, double, double, double, double, double }

; Function Attrs: mustprogress uwtable
define hidden noundef i32 @_ZN2cv4ap3p5solveEPA3_A3_dPS1_ddddddddddddddddddddb(ptr noundef nonnull align 8 dereferenceable(64) %0, ptr noundef %1, ptr noundef %2, double noundef %3, double noundef %4, double noundef %5, double noundef %6, double noundef %7, double noundef %8, double noundef %9, double noundef %10, double noundef %11, double noundef %12, double noundef %13, double noundef %14, double noundef %15, double noundef %16, double noundef %17, double noundef %18, double noundef %19, double noundef %20, double noundef %21, double noundef %22, i1 noundef zeroext %23) #5 align 2 {
  %25 = alloca ptr, align 8
  %26 = alloca ptr, align 8
  %27 = alloca ptr, align 8
  %28 = alloca double, align 8
  %29 = alloca double, align 8
  %30 = alloca double, align 8
  %31 = alloca double, align 8
  %32 = alloca double, align 8
  %33 = alloca double, align 8
  %34 = alloca double, align 8
  %35 = alloca double, align 8
  %36 = alloca double, align 8
  %37 = alloca double, align 8
  %38 = alloca double, align 8
  %39 = alloca double, align 8
  %40 = alloca double, align 8
  %41 = alloca double, align 8
  %42 = alloca double, align 8
  %43 = alloca double, align 8
  %44 = alloca double, align 8
  %45 = alloca double, align 8
  %46 = alloca double, align 8
  %47 = alloca double, align 8
  %48 = alloca i8, align 1
  %49 = alloca double, align 8
  %50 = alloca double, align 8
  %51 = alloca double, align 8
  %52 = alloca double, align 8
  %53 = alloca double, align 8
  %54 = alloca [3 x [4 x double]], align 16
  %55 = alloca [3 x [4 x double]], align 16
  store ptr %0, ptr %25, align 8, !tbaa !3
  store ptr %1, ptr %26, align 8, !tbaa !33
  store ptr %2, ptr %27, align 8, !tbaa !33
  store double %3, ptr %28, align 8, !tbaa !32
  store double %4, ptr %29, align 8, !tbaa !32
  store double %5, ptr %30, align 8, !tbaa !32
  store double %6, ptr %31, align 8, !tbaa !32
  store double %7, ptr %32, align 8, !tbaa !32
  store double %8, ptr %33, align 8, !tbaa !32
  store double %9, ptr %34, align 8, !tbaa !32
  store double %10, ptr %35, align 8, !tbaa !32
  store double %11, ptr %36, align 8, !tbaa !32
  store double %12, ptr %37, align 8, !tbaa !32
  store double %13, ptr %38, align 8, !tbaa !32
  store double %14, ptr %39, align 8, !tbaa !32
  store double %15, ptr %40, align 8, !tbaa !32
  store double %16, ptr %41, align 8, !tbaa !32
  store double %17, ptr %42, align 8, !tbaa !32
  store double %18, ptr %43, align 8, !tbaa !32
  store double %19, ptr %44, align 8, !tbaa !32
  store double %20, ptr %45, align 8, !tbaa !32
  store double %21, ptr %46, align 8, !tbaa !32
  store double %22, ptr %47, align 8, !tbaa !32
  %56 = zext i1 %23 to i8
  store i8 %56, ptr %48, align 1, !tbaa !35
  %57 = load ptr, ptr %25, align 8
  call void @llvm.lifetime.start.p0(i64 8, ptr %49) #3
  call void @llvm.lifetime.start.p0(i64 8, ptr %50) #3
  call void @llvm.lifetime.start.p0(i64 8, ptr %51) #3
  call void @llvm.lifetime.start.p0(i64 8, ptr %52) #3
  %58 = getelementptr inbounds nuw %"class.cv::ap3p", ptr %57, i32 0, i32 4
  %59 = load double, ptr %58, align 8, !tbaa !11
  %60 = load double, ptr %28, align 8, !tbaa !32
  %61 = getelementptr inbounds nuw %"class.cv::ap3p", ptr %57, i32 0, i32 6
  %62 = load double, ptr %61, align 8, !tbaa !15
  %63 = fneg double %62
  %64 = call double @llvm.fmuladd.f64(double %59, double %60, double %63)
  store double %64, ptr %28, align 8, !tbaa !32
  %65 = getelementptr inbounds nuw %"class.cv::ap3p", ptr %57, i32 0, i32 5
  %66 = load double, ptr %65, align 8, !tbaa !13
  %67 = load double, ptr %29, align 8, !tbaa !32
  %68 = getelementptr inbounds nuw %"class.cv::ap3p", ptr %57, i32 0, i32 7
  %69 = load double, ptr %68, align 8, !tbaa !17
  %70 = fneg double %69
  %71 = call double @llvm.fmuladd.f64(double %66, double %67, double %70)
  store double %71, ptr %29, align 8, !tbaa !32
  %72 = load double, ptr %28, align 8, !tbaa !32
  %73 = load double, ptr %28, align 8, !tbaa !32
  %74 = load double, ptr %29, align 8, !tbaa !32
  %75 = load double, ptr %29, align 8, !tbaa !32
  %76 = fmul double %74, %75
  %77 = call double @llvm.fmuladd.f64(double %72, double %73, double %76)
  %78 = fadd double %77, 1.000000e+00
  %79 = call double @sqrt(double noundef %78) #3, !tbaa !37
  store double %79, ptr %52, align 8, !tbaa !32
  %80 = load double, ptr %52, align 8, !tbaa !32
  %81 = fdiv double 1.000000e+00, %80
  store double %81, ptr %49, align 8, !tbaa !32
  %82 = load double, ptr %49, align 8, !tbaa !32
  %83 = load double, ptr %28, align 8, !tbaa !32
  %84 = fmul double %83, %82
  store double %84, ptr %28, align 8, !tbaa !32
  %85 = load double, ptr %49, align 8, !tbaa !32
  %86 = load double, ptr %29, align 8, !tbaa !32
  %87 = fmul double %86, %85
  store double %87, ptr %29, align 8, !tbaa !32
  %88 = getelementptr inbounds nuw %"class.cv::ap3p", ptr %57, i32 0, i32 4
  %89 = load double, ptr %88, align 8, !tbaa !11
  %90 = load double, ptr %33, align 8, !tbaa !32
  %91 = getelementptr inbounds nuw %"class.cv::ap3p", ptr %57, i32 0, i32 6
  %92 = load double, ptr %91, align 8, !tbaa !15
  %93 = fneg double %92
  %94 = call double @llvm.fmuladd.f64(double %89, double %90, double %93)
  store double %94, ptr %33, align 8, !tbaa !32
  %95 = getelementptr inbounds nuw %"class.cv::ap3p", ptr %57, i32 0, i32 5
  %96 = load double, ptr %95, align 8, !tbaa !13
  %97 = load double, ptr %34, align 8, !tbaa !32
  %98 = getelementptr inbounds nuw %"class.cv::ap3p", ptr %57, i32 0, i32 7
  %99 = load double, ptr %98, align 8, !tbaa !17
  %100 = fneg double %99
  %101 = call double @llvm.fmuladd.f64(double %96, double %97, double %100)
  store double %101, ptr %34, align 8, !tbaa !32
  %102 = load double, ptr %33, align 8, !tbaa !32
  %103 = load double, ptr %33, align 8, !tbaa !32
  %104 = load double, ptr %34, align 8, !tbaa !32
  %105 = load double, ptr %34, align 8, !tbaa !32
  %106 = fmul double %104, %105
  %107 = call double @llvm.fmuladd.f64(double %102, double %103, double %106)
  %108 = fadd double %107, 1.000000e+00
  %109 = call double @sqrt(double noundef %108) #3, !tbaa !37
  store double %109, ptr %52, align 8, !tbaa !32
  %110 = load double, ptr %52, align 8, !tbaa !32
  %111 = fdiv double 1.000000e+00, %110
  store double %111, ptr %50, align 8, !tbaa !32
  %112 = load double, ptr %50, align 8, !tbaa !32
  %113 = load double, ptr %33, align 8, !tbaa !32
  %114 = fmul double %113, %112
  store double %114, ptr %33, align 8, !tbaa !32
  %115 = load double, ptr %50, align 8, !tbaa !32
  %116 = load double, ptr %34, align 8, !tbaa !32
  %117 = fmul double %116, %115
  store double %117, ptr %34, align 8, !tbaa !32
  %118 = getelementptr inbounds nuw %"class.cv::ap3p", ptr %57, i32 0, i32 4
  %119 = load double, ptr %118, align 8, !tbaa !11
  %120 = load double, ptr %38, align 8, !tbaa !32
  %121 = getelementptr inbounds nuw %"class.cv::ap3p", ptr %57, i32 0, i32 6
  %122 = load double, ptr %121, align 8, !tbaa !15
  %123 = fneg double %122
  %124 = call double @llvm.fmuladd.f64(double %119, double %120, double %123)
  store double %124, ptr %38, align 8, !tbaa !32
  %125 = getelementptr inbounds nuw %"class.cv::ap3p", ptr %57, i32 0, i32 5
  %126 = load double, ptr %125, align 8, !tbaa !13
  %127 = load double, ptr %39, align 8, !tbaa !32
  %128 = getelementptr inbounds nuw %"class.cv::ap3p", ptr %57, i32 0, i32 7
  %129 = load double, ptr %128, align 8, !tbaa !17
  %130 = fneg double %129
  %131 = call double @llvm.fmuladd.f64(double %126, double %127, double %130)
  store double %131, ptr %39, align 8, !tbaa !32
  %132 = load double, ptr %38, align 8, !tbaa !32
  %133 = load double, ptr %38, align 8, !tbaa !32
  %134 = load double, ptr %39, align 8, !tbaa !32
  %135 = load double, ptr %39, align 8, !tbaa !32
  %136 = fmul double %134, %135
  %137 = call double @llvm.fmuladd.f64(double %132, double %133, double %136)
  %138 = fadd double %137, 1.000000e+00
  %139 = call double @sqrt(double noundef %138) #3, !tbaa !37
  store double %139, ptr %52, align 8, !tbaa !32
  %140 = load double, ptr %52, align 8, !tbaa !32
  %141 = fdiv double 1.000000e+00, %140
  store double %141, ptr %51, align 8, !tbaa !32
  %142 = load double, ptr %51, align 8, !tbaa !32
  %143 = load double, ptr %38, align 8, !tbaa !32
  %144 = fmul double %143, %142
  store double %144, ptr %38, align 8, !tbaa !32
  %145 = load double, ptr %51, align 8, !tbaa !32
  %146 = load double, ptr %39, align 8, !tbaa !32
  %147 = fmul double %146, %145
  store double %147, ptr %39, align 8, !tbaa !32
  %148 = getelementptr inbounds nuw %"class.cv::ap3p", ptr %57, i32 0, i32 4
  %149 = load double, ptr %148, align 8, !tbaa !11
  %150 = load double, ptr %43, align 8, !tbaa !32
  %151 = getelementptr inbounds nuw %"class.cv::ap3p", ptr %57, i32 0, i32 6
  %152 = load double, ptr %151, align 8, !tbaa !15
  %153 = fneg double %152
  %154 = call double @llvm.fmuladd.f64(double %149, double %150, double %153)
  store double %154, ptr %43, align 8, !tbaa !32
  %155 = getelementptr inbounds nuw %"class.cv::ap3p", ptr %57, i32 0, i32 5
  %156 = load double, ptr %155, align 8, !tbaa !13
  %157 = load double, ptr %44, align 8, !tbaa !32
  %158 = getelementptr inbounds nuw %"class.cv::ap3p", ptr %57, i32 0, i32 7
  %159 = load double, ptr %158, align 8, !tbaa !17
  %160 = fneg double %159
  %161 = call double @llvm.fmuladd.f64(double %156, double %157, double %160)
  store double %161, ptr %44, align 8, !tbaa !32
  call void @llvm.lifetime.start.p0(i64 8, ptr %53) #3
  store double 1.000000e+00, ptr %53, align 8, !tbaa !32
  call void @llvm.lifetime.start.p0(i64 96, ptr %54) #3
  %162 = load double, ptr %28, align 8, !tbaa !32
  store double %162, ptr %54, align 8, !tbaa !32
  %163 = getelementptr inbounds double, ptr %54, i64 1
  %164 = load double, ptr %33, align 8, !tbaa !32
  store double %164, ptr %163, align 8, !tbaa !32
  %165 = getelementptr inbounds double, ptr %54, i64 2
  %166 = load double, ptr %38, align 8, !tbaa !32
  store double %166, ptr %165, align 8, !tbaa !32
  %167 = getelementptr inbounds double, ptr %54, i64 3
  %168 = load double, ptr %43, align 8, !tbaa !32
  store double %168, ptr %167, align 8, !tbaa !32
  %169 = getelementptr inbounds [4 x double], ptr %54, i64 1
  %170 = load double, ptr %29, align 8, !tbaa !32
  store double %170, ptr %169, align 8, !tbaa !32
  %171 = getelementptr inbounds double, ptr %169, i64 1
  %172 = load double, ptr %34, align 8, !tbaa !32
  store double %172, ptr %171, align 8, !tbaa !32
  %173 = getelementptr inbounds double, ptr %169, i64 2
  %174 = load double, ptr %39, align 8, !tbaa !32
  store double %174, ptr %173, align 8, !tbaa !32
  %175 = getelementptr inbounds double, ptr %169, i64 3
  %176 = load double, ptr %44, align 8, !tbaa !32
  store double %176, ptr %175, align 8, !tbaa !32
  %177 = getelementptr inbounds [4 x double], ptr %54, i64 2
  %178 = load double, ptr %49, align 8, !tbaa !32
  store double %178, ptr %177, align 8, !tbaa !32
  %179 = getelementptr inbounds double, ptr %177, i64 1
  %180 = load double, ptr %50, align 8, !tbaa !32
  store double %180, ptr %179, align 8, !tbaa !32
  %181 = getelementptr inbounds double, ptr %177, i64 2
  %182 = load double, ptr %51, align 8, !tbaa !32
  store double %182, ptr %181, align 8, !tbaa !32
  %183 = getelementptr inbounds double, ptr %177, i64 3
  %184 = load double, ptr %53, align 8, !tbaa !32
  store double %184, ptr %183, align 8, !tbaa !32
  call void @llvm.lifetime.start.p0(i64 96, ptr %55) #3
  %185 = load double, ptr %30, align 8, !tbaa !32
  store double %185, ptr %55, align 8, !tbaa !32
  %186 = getelementptr inbounds double, ptr %55, i64 1
  %187 = load double, ptr %35, align 8, !tbaa !32
  store double %187, ptr %186, align 8, !tbaa !32
  %188 = getelementptr inbounds double, ptr %55, i64 2
  %189 = load double, ptr %40, align 8, !tbaa !32
  store double %189, ptr %188, align 8, !tbaa !32
  %190 = getelementptr inbounds double, ptr %55, i64 3
  %191 = load double, ptr %45, align 8, !tbaa !32
  store double %191, ptr %190, align 8, !tbaa !32
  %192 = getelementptr inbounds [4 x double], ptr %55, i64 1
  %193 = load double, ptr %31, align 8, !tbaa !32
  store double %193, ptr %192, align 8, !tbaa !32
  %194 = getelementptr inbounds double, ptr %192, i64 1
  %195 = load double, ptr %36, align 8, !tbaa !32
  store double %195, ptr %194, align 8, !tbaa !32
  %196 = getelementptr inbounds double, ptr %192, i64 2
  %197 = load double, ptr %41, align 8, !tbaa !32
  store double %197, ptr %196, align 8, !tbaa !32
  %198 = getelementptr inbounds double, ptr %192, i64 3
  %199 = load double, ptr %46, align 8, !tbaa !32
  store double %199, ptr %198, align 8, !tbaa !32
  %200 = getelementptr inbounds [4 x double], ptr %55, i64 2
  %201 = load double, ptr %32, align 8, !tbaa !32
  store double %201, ptr %200, align 8, !tbaa !32
  %202 = getelementptr inbounds double, ptr %200, i64 1
  %203 = load double, ptr %37, align 8, !tbaa !32
  store double %203, ptr %202, align 8, !tbaa !32
  %204 = getelementptr inbounds double, ptr %200, i64 2
  %205 = load double, ptr %42, align 8, !tbaa !32
  store double %205, ptr %204, align 8, !tbaa !32
  %206 = getelementptr inbounds double, ptr %200, i64 3
  %207 = load double, ptr %47, align 8, !tbaa !32
  store double %207, ptr %206, align 8, !tbaa !32
  %208 = getelementptr inbounds [3 x [4 x double]], ptr %54, i64 0, i64 0
  %209 = getelementptr inbounds [3 x [4 x double]], ptr %55, i64 0, i64 0
  %210 = load ptr, ptr %26, align 8, !tbaa !33
  %211 = load ptr, ptr %27, align 8, !tbaa !33
  %212 = load i8, ptr %48, align 1, !tbaa !35, !range !38, !noundef !39
  %213 = trunc i8 %212 to i1
  %214 = call noundef i32 @_ZN2cv4ap3p12computePosesEPA4_KdS3_PA3_A3_dPS4_b(ptr noundef nonnull align 8 dereferenceable(64) %57, ptr noundef %208, ptr noundef %209, ptr noundef %210, ptr noundef %211, i1 noundef zeroext %213)
  call void @llvm.lifetime.end.p0(i64 96, ptr %55) #3
  call void @llvm.lifetime.end.p0(i64 96, ptr %54) #3
  call void @llvm.lifetime.end.p0(i64 8, ptr %53) #3
  call void @llvm.lifetime.end.p0(i64 8, ptr %52) #3
  call void @llvm.lifetime.end.p0(i64 8, ptr %51) #3
  call void @llvm.lifetime.end.p0(i64 8, ptr %50) #3
  call void @llvm.lifetime.end.p0(i64 8, ptr %49) #3
  ret i32 %214
}