; Function Attrs: mustprogress uwtable
define hidden noundef i32 @_ZN2cv4ap3p5solveEPA3_A3_dPS1_ddddddddddddddddddddb(ptr noundef nonnull readonly align 8 captures(none) dereferenceable(64) %0, ptr noundef captures(none) %1, ptr noundef captures(none) %2, double noundef %3, double noundef %4, double noundef %5, double noundef %6, double noundef %7, double noundef %8, double noundef %9, double noundef %10, double noundef %11, double noundef %12, double noundef %13, double noundef %14, double noundef %15, double noundef %16, double noundef %17, double noundef %18, double noundef %19, double noundef %20, double noundef %21, double noundef %22, i1 noundef zeroext %23) local_unnamed_addr #6 align 2 {
  %25 = alloca [3 x [4 x double]], align 16
  %26 = alloca [3 x [4 x double]], align 16
  %27 = getelementptr inbounds nuw i8, ptr %0, i64 32
  %28 = load double, ptr %27, align 8, !tbaa !8
  %29 = getelementptr inbounds nuw i8, ptr %0, i64 48
  %30 = load double, ptr %29, align 8, !tbaa !12
  %31 = fneg double %30
  %32 = tail call double @llvm.fmuladd.f64(double %28, double %3, double %31)
  %33 = getelementptr inbounds nuw i8, ptr %0, i64 40
  %34 = load double, ptr %33, align 8, !tbaa !10
  %35 = getelementptr inbounds nuw i8, ptr %0, i64 56
  %36 = load double, ptr %35, align 8, !tbaa !14
  %37 = fneg double %36
  %38 = tail call double @llvm.fmuladd.f64(double %34, double %4, double %37)
  %39 = fmul double %38, %38
  %40 = tail call double @llvm.fmuladd.f64(double %32, double %32, double %39)
  %41 = fadd double %40, 1.000000e+00
  %sqrt63 = tail call double @llvm.sqrt.f64(double %41)
  %42 = fdiv double 1.000000e+00, %sqrt63
  %43 = fmul double %32, %42
  %44 = fmul double %38, %42
  %45 = tail call double @llvm.fmuladd.f64(double %28, double %8, double %31)
  %46 = tail call double @llvm.fmuladd.f64(double %34, double %9, double %37)
  %47 = fmul double %46, %46
  %48 = tail call double @llvm.fmuladd.f64(double %45, double %45, double %47)
  %49 = fadd double %48, 1.000000e+00
  %sqrt62 = tail call double @llvm.sqrt.f64(double %49)
  %50 = fdiv double 1.000000e+00, %sqrt62
  %51 = fmul double %45, %50
  %52 = fmul double %46, %50
  %53 = tail call double @llvm.fmuladd.f64(double %28, double %13, double %31)
  %54 = tail call double @llvm.fmuladd.f64(double %34, double %14, double %37)
  %55 = fmul double %54, %54
  %56 = tail call double @llvm.fmuladd.f64(double %53, double %53, double %55)
  %57 = fadd double %56, 1.000000e+00
  %sqrt = tail call double @llvm.sqrt.f64(double %57)
  %58 = fdiv double 1.000000e+00, %sqrt
  %59 = fmul double %53, %58
  %60 = fmul double %54, %58
  %61 = tail call double @llvm.fmuladd.f64(double %28, double %18, double %31)
  %62 = tail call double @llvm.fmuladd.f64(double %34, double %19, double %37)
  call void @llvm.lifetime.start.p0(i64 96, ptr nonnull %25) #22
  store double %43, ptr %25, align 16, !tbaa !32
  %63 = getelementptr inbounds nuw i8, ptr %25, i64 8
  store double %51, ptr %63, align 8, !tbaa !32
  %64 = getelementptr inbounds nuw i8, ptr %25, i64 16
  store double %59, ptr %64, align 16, !tbaa !32
  %65 = getelementptr inbounds nuw i8, ptr %25, i64 24
  store double %61, ptr %65, align 8, !tbaa !32
  %66 = getelementptr inbounds nuw i8, ptr %25, i64 32
  store double %44, ptr %66, align 16, !tbaa !32
  %67 = getelementptr inbounds nuw i8, ptr %25, i64 40
  store double %52, ptr %67, align 8, !tbaa !32
  %68 = getelementptr inbounds nuw i8, ptr %25, i64 48
  store double %60, ptr %68, align 16, !tbaa !32
  %69 = getelementptr inbounds nuw i8, ptr %25, i64 56
  store double %62, ptr %69, align 8, !tbaa !32
  %70 = getelementptr inbounds nuw i8, ptr %25, i64 64
  store double %42, ptr %70, align 16, !tbaa !32
  %71 = getelementptr inbounds nuw i8, ptr %25, i64 72
  store double %50, ptr %71, align 8, !tbaa !32
  %72 = getelementptr inbounds nuw i8, ptr %25, i64 80
  store double %58, ptr %72, align 16, !tbaa !32
  %73 = getelementptr inbounds nuw i8, ptr %25, i64 88
  store double 1.000000e+00, ptr %73, align 8, !tbaa !32
  call void @llvm.lifetime.start.p0(i64 96, ptr nonnull %26) #22
  store double %5, ptr %26, align 16, !tbaa !32
  %74 = getelementptr inbounds nuw i8, ptr %26, i64 8
  store double %10, ptr %74, align 8, !tbaa !32
  %75 = getelementptr inbounds nuw i8, ptr %26, i64 16
  store double %15, ptr %75, align 16, !tbaa !32
  %76 = getelementptr inbounds nuw i8, ptr %26, i64 24
  store double %20, ptr %76, align 8, !tbaa !32
  %77 = getelementptr inbounds nuw i8, ptr %26, i64 32
  store double %6, ptr %77, align 16, !tbaa !32
  %78 = getelementptr inbounds nuw i8, ptr %26, i64 40
  store double %11, ptr %78, align 8, !tbaa !32
  %79 = getelementptr inbounds nuw i8, ptr %26, i64 48
  store double %16, ptr %79, align 16, !tbaa !32
  %80 = getelementptr inbounds nuw i8, ptr %26, i64 56
  store double %21, ptr %80, align 8, !tbaa !32
  %81 = getelementptr inbounds nuw i8, ptr %26, i64 64
  store double %7, ptr %81, align 16, !tbaa !32
  %82 = getelementptr inbounds nuw i8, ptr %26, i64 72
  store double %12, ptr %82, align 8, !tbaa !32
  %83 = getelementptr inbounds nuw i8, ptr %26, i64 80
  store double %17, ptr %83, align 16, !tbaa !32
  %84 = getelementptr inbounds nuw i8, ptr %26, i64 88
  store double %22, ptr %84, align 8, !tbaa !32
  %85 = call noundef i32 @_ZN2cv4ap3p12computePosesEPA4_KdS3_PA3_A3_dPS4_b(ptr nonnull align 8 poison, ptr noundef nonnull %25, ptr noundef nonnull %26, ptr noundef %1, ptr noundef %2, i1 noundef zeroext %23)
  call void @llvm.lifetime.end.p0(i64 96, ptr nonnull %26) #22
  call void @llvm.lifetime.end.p0(i64 96, ptr nonnull %25) #22
  ret i32 %85
}